; Function Attrs: mustprogress uwtable
define hidden void @_ZN2dd6solver6retireEPNS0_8equationE(ptr nocapture noundef nonnull readnone align 8 dereferenceable(208) %this, ptr noundef %eq) local_unnamed_addr #5 align 2 personality ptr @__gxx_personality_v0 {
entry:
  %cmp.i = icmp eq ptr %eq, null
  br i1 %cmp.i, label %_Z7deallocIN2dd6solver8equationEEvPT_.exit, label %if.end.i

if.end.i:                                         ; preds = %entry
  %m_poly.i.i = getelementptr inbounds i8, ptr %eq, i64 8
  %m.i.i.i = getelementptr inbounds i8, ptr %eq, i64 16
  %0 = load ptr, ptr %m.i.i.i, align 8
  %1 = load i32, ptr %m_poly.i.i, align 8
  %2 = load ptr, ptr %0, align 8
  %idxprom.i.i.i.i.i = zext i32 %1 to i64
  %arrayidx.i.i.i.i.i = getelementptr inbounds %"struct.dd::pdd_manager::node", ptr %2, i64 %idxprom.i.i.i.i.i
  %bf.load.i.i.i.i = load i32, ptr %arrayidx.i.i.i.i.i, align 4
  %bf.clear.i.i.i.i = and i32 %bf.load.i.i.i.i, 1023
  %cmp.not.i.i.i.i = icmp eq i32 %bf.clear.i.i.i.i, 1023
  br i1 %cmp.not.i.i.i.i, label %_ZN2dd6solver8equationD2Ev.exit.i, label %if.then.i.i.i.i

if.then.i.i.i.i:                                  ; preds = %if.end.i
  %dec.i.i.i.i = add i32 %bf.load.i.i.i.i, 1023
  %bf.value.i.i.i.i = and i32 %dec.i.i.i.i, 1023
  %bf.clear7.i.i.i.i = and i32 %bf.load.i.i.i.i, -1024
  %bf.set.i.i.i.i = or disjoint i32 %bf.value.i.i.i.i, %bf.clear7.i.i.i.i
  store i32 %bf.set.i.i.i.i, ptr %arrayidx.i.i.i.i.i, align 4
  br label %_ZN2dd6solver8equationD2Ev.exit.i

_ZN2dd6solver8equationD2Ev.exit.i:                ; preds = %if.then.i.i.i.i, %if.end.i
  tail call void @_ZN6memory10deallocateEPv(ptr noundef nonnull %eq)
  br label %_Z7deallocIN2dd6solver8equationEEvPT_.exit

_Z7deallocIN2dd6solver8equationEEvPT_.exit:       ; preds = %entry, %_ZN2dd6solver8equationD2Ev.exit.i
  ret void
}